Certificate:
    Data:
        Version: 3 (0x2)
        Serial Number: 22 (0x16)
    Signature Algorithm: sha512WithRSAEncryption
        Issuer: C=FI, CN=Spaceify CA, O=Spaceify Inc., OU=Certificate issuer
        Validity
            Not Before: May  7 15:36:27 2015 GMT
            Not After : Feb 25 11:46:45 2026 GMT
        Subject: C=FI, CN=Server, O=Spaceify Inc., OU=Spaceify core
        Subject Public Key Info:
            Public Key Algorithm: rsaEncryption
                Public-Key: (4096 bit)
                Modulus:
                    00:f5:21:99:9a:41:6e:a4:69:87:83:e7:9b:69:16:
                    5d:37:89:27:ea:59:7c:f4:63:7f:93:ca:a0:ac:1c:
                    ff:21:e0:62:24:7c:db:2e:51:6c:2d:69:b4:8a:0e:
                    4e:16:d9:9d:51:0b:7b:0a:da:e6:bc:61:a5:cc:fd:
                    1d:34:0b:e8:35:9c:df:be:6f:65:be:07:83:f7:36:
                    da:87:13:47:bf:88:8b:f1:90:a6:6c:fc:88:9c:de:
                    ad:3c:f2:88:60:fe:5a:98:49:f8:23:2d:43:cc:2f:
                    22:a4:8f:d4:1a:27:f2:ac:a8:f6:d1:e2:cf:c7:47:
                    31:11:5f:b8:ec:c5:b0:02:2f:b5:ee:6b:d0:d8:57:
                    68:2d:76:a0:72:e3:5c:17:54:10:24:b0:8d:2a:94:
                    3b:af:32:61:aa:3f:7b:4f:92:cf:dd:62:72:fe:8f:
                    c1:1e:90:df:cc:c7:bc:a2:7f:98:48:37:1c:7d:b8:
                    e3:a0:ba:7b:57:21:1e:63:1e:98:28:f6:33:87:36:
                    7a:ca:25:0e:fa:c7:78:30:e1:98:05:65:05:ed:5f:
                    62:5a:58:04:01:c5:67:22:4b:dd:98:37:2b:44:e2:
                    9b:74:62:f8:ed:a8:21:56:7d:aa:5e:9f:7c:38:6a:
                    99:77:7c:61:db:ae:83:dd:74:a8:c1:2e:70:5e:d0:
                    df:cf:e8:c8:c5:8b:77:be:de:55:b5:97:70:31:ca:
                    5e:e7:3c:2a:a7:a5:27:a2:36:d0:e8:68:87:bf:3a:
                    68:4b:f4:b5:6c:d1:ef:ce:f5:fe:0b:26:60:aa:5c:
                    66:0c:b2:20:cc:f3:22:bd:ef:c9:11:ce:89:43:b0:
                    20:d4:ea:17:db:f3:1e:c8:4b:cd:4a:04:9e:06:0a:
                    1a:e8:2c:9b:d3:e1:c7:36:c8:0b:22:67:74:f8:3d:
                    27:c6:10:9b:be:84:2d:fb:df:21:11:b2:4d:db:58:
                    8a:ad:f6:ed:bb:8a:85:bb:54:4d:11:a4:f4:77:b4:
                    54:fc:63:dd:36:c2:a6:a4:d4:c4:b3:f7:8f:4e:78:
                    1b:b8:db:f1:e3:e9:e5:70:0f:a6:ae:ce:48:56:7a:
                    f9:05:c4:76:24:25:cc:70:28:e9:02:42:a8:a8:bf:
                    74:e2:d4:20:82:ca:3e:92:26:5e:a4:0e:6a:01:bd:
                    dc:48:47:7e:ef:c0:2a:50:08:51:e5:9b:cb:d2:6a:
                    f6:18:de:9e:6a:fe:6f:35:c5:2e:e8:eb:68:a8:8b:
                    86:2a:22:3a:0a:b0:89:9e:93:d0:48:02:ad:3a:34:
                    80:4e:cf:f6:e5:3e:61:b3:f4:35:80:62:8e:a2:d3:
                    d5:d5:12:db:2c:4c:b4:5d:57:e2:21:c4:8d:6b:ca:
                    16:46:db
                Exponent: 65537 (0x10001)
        X509v3 extensions:
            X509v3 Subject Key Identifier: 
                76:33:B8:90:20:89:4D:30:F4:8B:F3:AB:73:53:AF:6C:8C:1A:AE:0E
            X509v3 Basic Constraints: critical
                CA:FALSE
            X509v3 Key Usage: 
                Digital Signature, Non Repudiation, Key Encipherment, Key Agreement
            X509v3 Extended Key Usage: 
                TLS Web Server Authentication, TLS Web Client Authentication
            X509v3 Authority Key Identifier: 
                keyid:FC:13:7C:75:3B:C2:34:0F:AA:27:C9:03:56:CE:41:E4:84:09:56:A6
                DirName:/C=FI/CN=Spaceify CA/O=Spaceify Inc./OU=Certificate issuer
                serial:AC:9C:EA:F9:37:97:AB:4D

            X509v3 Subject Alternative Name: 
                IP Address:10.0.0.1, IP Address:127.0.0.1, IP Address:0.0.0.0, DNS:localhost, DNS:edge.spaceify.net
    Signature Algorithm: sha512WithRSAEncryption
         b0:69:59:97:32:8b:6a:6c:bf:fb:66:e2:1a:fc:d0:d1:5e:9c:
         fe:2c:94:9b:cc:37:13:90:fa:d2:b9:e0:28:14:c5:24:9e:a8:
         19:9a:4c:8b:9a:0c:02:ba:8e:64:22:de:1f:b3:56:3f:fa:c1:
         0a:4a:6c:54:18:d6:6c:c1:66:21:cf:a0:53:6e:07:f4:53:93:
         2f:fd:91:ae:48:b9:16:94:7c:79:8d:cf:ad:b1:46:be:3b:47:
         9a:fd:d3:cd:6a:c0:06:e8:77:25:46:33:0a:9c:13:ee:63:c9:
         53:c8:c1:b4:4c:7c:d7:4d:41:45:e4:9d:17:66:f0:cf:31:09:
         aa:9a:db:b5:b1:5d:ef:32:52:e9:b3:f5:0c:30:a5:00:10:86:
         4d:55:2a:2d:4a:7f:49:de:24:eb:c1:96:23:77:c2:0d:8c:56:
         5e:ae:c4:6d:90:8a:a4:54:25:0d:cf:a3:b7:de:62:da:ec:0f:
         1b:cd:87:42:f5:9d:c1:c1:39:1b:19:1e:14:26:0c:d6:2a:c3:
         50:45:0b:8c:3d:ab:0f:d8:ae:5d:0a:56:cb:a3:da:fc:d4:14:
         82:b3:13:73:e8:7b:67:d3:33:8a:80:9b:7d:ba:ec:0f:fc:d2:
         24:15:a1:e9:7f:22:f7:61:86:85:5d:21:73:d7:35:54:97:a9:
         6b:d5:a8:b9:7b:42:41:88:b5:62:c8:52:32:77:0c:47:aa:d3:
         78:97:26:f5:a5:c8:a8:b1:46:84:46:fd:61:ef:b0:84:cc:d0:
         e4:ce:9b:3f:ed:16:b4:93:6e:c2:b0:5b:82:ea:f5:62:1c:0a:
         1f:04:83:76:39:17:a0:22:ba:b0:b3:e1:e8:53:e8:45:fb:41:
         2a:24:2e:8c:f6:ea:a2:d6:12:36:3d:d6:97:90:f0:ff:0b:79:
         4f:ca:2d:18:bd:5b:be:64:d8:4c:06:54:8f:bf:49:a7:a3:58:
         40:ef:e1:7f:ad:42:8d:1f:5f:01:a5:6c:e7:81:22:21:dc:5f:
         74:ee:14:01:ab:44:4b:57:70:fe:e2:e6:fe:71:e0:f8:c1:b7:
         50:03:53:aa:c0:23:b1:88:40:9f:ac:ba:12:44:30:e4:07:84:
         2d:9f:c0:65:48:25:f4:e2:7e:a6:67:e2:fb:3b:64:12:27:47:
         50:cb:04:03:5d:63:37:69:35:9a:cc:74:f8:61:36:cb:f2:b0:
         a1:8b:4c:fc:7f:5c:e8:6e:01:51:b2:d9:49:d0:ae:07:0d:a1:
         73:97:3c:bf:83:ba:08:98:44:7e:58:f0:a4:13:0c:0d:da:3c:
         ab:48:e8:8e:0b:e8:51:63:5f:9a:64:fc:31:70:bd:4c:45:d7:
         5a:27:7b:bf:07:23:48:1b
-----BEGIN CERTIFICATE-----
MIIGSTCCBDGgAwIBAgIBFjANBgkqhkiG9w0BAQ0FADBYMQswCQYDVQQGEwJGSTEU
MBIGA1UEAxMLU3BhY2VpZnkgQ0ExFjAUBgNVBAoTDVNwYWNlaWZ5IEluYy4xGzAZ
BgNVBAsTEkNlcnRpZmljYXRlIGlzc3VlcjAgFw0xNTA1MDcxNTM2MjdaGA8yMDI2
MDIyNTExNDY0NVowTjELMAkGA1UEBhMCRkkxDzANBgNVBAMTBlNlcnZlcjEWMBQG
A1UEChMNU3BhY2VpZnkgSW5jLjEWMBQGA1UECxMNU3BhY2VpZnkgY29yZTCCAiIw
DQYJKoZIhvcNAQEBBQADggIPADCCAgoCggIBAPUhmZpBbqRph4Pnm2kWXTeJJ+pZ
fPRjf5PKoKwc/yHgYiR82y5RbC1ptIoOThbZnVELewra5rxhpcz9HTQL6DWc375v
Zb4Hg/c22ocTR7+Ii/GQpmz8iJzerTzyiGD+WphJ+CMtQ8wvIqSP1Bon8qyo9tHi
z8dHMRFfuOzFsAIvte5r0NhXaC12oHLjXBdUECSwjSqUO68yYao/e0+Sz91icv6P
wR6Q38zHvKJ/mEg3HH2446C6e1chHmMemCj2M4c2esolDvrHeDDhmAVlBe1fYlpY
BAHFZyJL3Zg3K0Tim3Ri+O2oIVZ9ql6ffDhqmXd8Yduug910qMEucF7Q38/oyMWL
d77eVbWXcDHKXuc8KqelJ6I20Ohoh786aEv0tWzR7871/gsmYKpcZgyyIMzzIr3v
yRHOiUOwINTqF9vzHshLzUoEngYKGugsm9PhxzbICyJndPg9J8YQm76ELfvfIRGy
TdtYiq327buKhbtUTRGk9He0VPxj3TbCpqTUxLP3j054G7jb8ePp5XAPpq7OSFZ6
+QXEdiQlzHAo6QJCqKi/dOLUIILKPpImXqQOagG93EhHfu/AKlAIUeWby9Jq9hje
nmr+bzXFLujraKiLhioiOgqwiZ6T0EgCrTo0gE7P9uU+YbP0NYBijqLT1dUS2yxM
tF1X4iHEjWvKFkbbAgMBAAGjggEkMIIBIDAdBgNVHQ4EFgQUdjO4kCCJTTD0i/Or
c1OvbIwarg4wDAYDVR0TAQH/BAIwADALBgNVHQ8EBAMCA+gwHQYDVR0lBBYwFAYI
KwYBBQUHAwEGCCsGAQUFBwMCMIGJBgNVHSMEgYEwf4AU/BN8dTvCNA+qJ8kDVs5B
5IQJVqahXKRaMFgxCzAJBgNVBAYTAkZJMRQwEgYDVQQDEwtTcGFjZWlmeSBDQTEW
MBQGA1UEChMNU3BhY2VpZnkgSW5jLjEbMBkGA1UECxMSQ2VydGlmaWNhdGUgaXNz
dWVyggkArJzq+TeXq00wOQYDVR0RBDIwMIcECgAAAYcEfwAAAYcEAAAAAIIJbG9j
YWxob3N0ghFlZGdlLnNwYWNlaWZ5Lm5ldDANBgkqhkiG9w0BAQ0FAAOCAgEAsGlZ
lzKLamy/+2biGvzQ0V6c/iyUm8w3E5D60rngKBTFJJ6oGZpMi5oMArqOZCLeH7NW
P/rBCkpsVBjWbMFmIc+gU24H9FOTL/2Rrki5FpR8eY3PrbFGvjtHmv3TzWrABuh3
JUYzCpwT7mPJU8jBtEx8101BReSdF2bwzzEJqprbtbFd7zJS6bP1DDClABCGTVUq
LUp/Sd4k68GWI3fCDYxWXq7EbZCKpFQlDc+jt95i2uwPG82HQvWdwcE5GxkeFCYM
1irDUEULjD2rD9iuXQpWy6Pa/NQUgrMTc+h7Z9MzioCbfbrsD/zSJBWh6X8i92GG
hV0hc9c1VJepa9WouXtCQYi1YshSMncMR6rTeJcm9aXIqLFGhEb9Ye+whMzQ5M6b
P+0WtJNuwrBbgur1YhwKHwSDdjkXoCK6sLPh6FPoRftBKiQujPbqotYSNj3Wl5Dw
/wt5T8otGL1bvmTYTAZUj79Jp6NYQO/hf61CjR9fAaVs54EiIdxfdO4UAatES1dw
/uLm/nHg+MG3UANTqsAjsYhAn6y6EkQw5AeELZ/AZUgl9OJ+pmfi+ztkEidHUMsE
A11jN2k1msx0+GE2y/KwoYtM/H9c6G4BUbLZSdCuBw2hc5c8v4O6CJhEfljwpBMM
Ddo8q0jojgvoUWNfmmT8MXC9TEXXWid7vwcjSBs=
-----END CERTIFICATE-----
